; Function Attrs: mustprogress uwtable
define void @_ZN3gmx25CommandLineProgramContext14setDisplayNameERKNSt7__cxx1112basic_stringIcSt11char_traitsIcESaIcEEE(ptr nocapture noundef nonnull readonly align 8 dereferenceable(16) %0, ptr noundef nonnull align 8 dereferenceable(32) %1) local_unnamed_addr #1 align 2 {
  %3 = getelementptr inbounds i8, ptr %0, i64 8
  %4 = load ptr, ptr %3, align 8
  %5 = getelementptr inbounds i8, ptr %4, i64 80
  %6 = tail call noundef zeroext i1 @_ZNKSt7__cxx1112basic_stringIcSt11char_traitsIcESaIcEE5emptyEv(ptr noundef nonnull align 8 dereferenceable(32) %5) #13
  br i1 %6, label %8, label %7

7:                                                ; preds = %2
  tail call void @_ZN3gmx8internal13assertHandlerEPKcS2_S2_S2_i(ptr noundef nonnull @.str.6, ptr noundef nonnull @.str.7, ptr noundef nonnull @"__PRETTY_FUNCTION__._ZZN3gmx25CommandLineProgramContext14setDisplayNameERKNSt7__cxx1112basic_stringIcSt11char_traitsIcESaIcEEEENK3$_0clEv", ptr noundef nonnull @.str.8, i32 noundef 385) #14
  unreachable

8:                                                ; preds = %2
  %9 = load ptr, ptr %3, align 8
  %10 = getelementptr inbounds i8, ptr %9, i64 80
  %11 = tail call noundef nonnull align 8 dereferenceable(32) ptr @_ZNSt7__cxx1112basic_stringIcSt11char_traitsIcESaIcEEaSERKS4_(ptr noundef nonnull align 8 dereferenceable(32) %10, ptr noundef nonnull align 8 dereferenceable(32) %1)
  ret void
}